; Function Attrs: mustprogress uwtable
define noundef i32 @_ZNK6casadi14DenseTranspose10sp_forwardEPPKyPPyPxS4_(ptr noundef nonnull readonly align 8 captures(none) dereferenceable(64) %0, ptr noundef readonly captures(none) %1, ptr noundef readonly captures(none) %2, ptr readnone captures(none) %3, ptr readnone captures(none) %4) unnamed_addr #3 align 2 {
  %6 = load ptr, ptr %1, align 8, !tbaa !63
  %7 = load ptr, ptr %2, align 8, !tbaa !63
  %8 = getelementptr inbounds nuw i8, ptr %0, i64 32
  %9 = getelementptr inbounds nuw i8, ptr %0, i64 40
  %10 = load ptr, ptr %9, align 8, !tbaa !44
  %11 = load ptr, ptr %8, align 8, !tbaa !47
  %.not.i.i.i.not = icmp eq ptr %10, %11
  br i1 %.not.i.i.i.not, label %12, label %_ZNK6casadi6MXNode3depEx.exit

12:                                               ; preds = %5
  tail call void (ptr, ...) @_ZSt24__throw_out_of_range_fmtPKcz(ptr noundef nonnull @.str.22, i64 noundef 0, i64 noundef 0) #24
  unreachable

_ZNK6casadi6MXNode3depEx.exit:                    ; preds = %5
  %13 = tail call noundef nonnull align 8 dereferenceable(8) ptr @_ZNK6casadi2MX8sparsityEv(ptr noundef nonnull align 8 dereferenceable(8) %11)
  %14 = tail call noundef i64 @_ZNK6casadi8Sparsity5size1Ev(ptr noundef nonnull align 8 dereferenceable(8) %13)
  %15 = load ptr, ptr %9, align 8, !tbaa !44
  %16 = load ptr, ptr %8, align 8, !tbaa !47
  %.not.i.i.i16.not = icmp eq ptr %15, %16
  br i1 %.not.i.i.i16.not, label %17, label %_ZNK6casadi6MXNode3depEx.exit17

17:                                               ; preds = %_ZNK6casadi6MXNode3depEx.exit
  tail call void (ptr, ...) @_ZSt24__throw_out_of_range_fmtPKcz(ptr noundef nonnull @.str.22, i64 noundef 0, i64 noundef 0) #24
  unreachable

_ZNK6casadi6MXNode3depEx.exit17:                  ; preds = %_ZNK6casadi6MXNode3depEx.exit
  %18 = tail call noundef nonnull align 8 dereferenceable(8) ptr @_ZNK6casadi2MX8sparsityEv(ptr noundef nonnull align 8 dereferenceable(8) %16)
  %19 = tail call noundef i64 @_ZNK6casadi8Sparsity5size2Ev(ptr noundef nonnull align 8 dereferenceable(8) %18)
  %20 = icmp sgt i64 %14, 0
  %21 = icmp sgt i64 %19, 0
  %or.cond = and i1 %20, %21
  br i1 %or.cond, label %.preheader.us, label %._crit_edge22

.preheader.us:                                    ; preds = %_ZNK6casadi6MXNode3depEx.exit17, %._crit_edge.us
  %.01321.us = phi i64 [ %29, %._crit_edge.us ], [ 0, %_ZNK6casadi6MXNode3depEx.exit17 ]
  %.01420.us = phi ptr [ %27, %._crit_edge.us ], [ %7, %_ZNK6casadi6MXNode3depEx.exit17 ]
  %22 = getelementptr i64, ptr %6, i64 %.01321.us
  br label %23

23:                                               ; preds = %.preheader.us, %23
  %.019.us = phi i64 [ 0, %.preheader.us ], [ %28, %23 ]
  %.118.us = phi ptr [ %.01420.us, %.preheader.us ], [ %27, %23 ]
  %24 = mul nuw nsw i64 %.019.us, %14
  %25 = getelementptr i64, ptr %22, i64 %24
  %26 = load i64, ptr %25, align 8, !tbaa !52
  %27 = getelementptr inbounds nuw i8, ptr %.118.us, i64 8
  store i64 %26, ptr %.118.us, align 8, !tbaa !52
  %28 = add nuw nsw i64 %.019.us, 1
  %exitcond.not = icmp eq i64 %28, %19
  br i1 %exitcond.not, label %._crit_edge.us, label %23, !llvm.loop !67

._crit_edge.us:                                   ; preds = %23
  %29 = add nuw nsw i64 %.01321.us, 1
  %exitcond24.not = icmp eq i64 %29, %14
  br i1 %exitcond24.not, label %._crit_edge22, label %.preheader.us, !llvm.loop !68

._crit_edge22:                                    ; preds = %._crit_edge.us, %_ZNK6casadi6MXNode3depEx.exit17
  ret i32 0
}